target datalayout = "e-m:e-p270:32:32-p271:32:32-p272:64:64-i64:64-i128:128-f80:128-n8:16:32:64-S128"
target triple = "x86_64-pc-linux-gnu"

%struct._packet_info = type { ptr, ptr, i32, i32, %struct.nstime_t, %struct.nstime_t, %struct.nstime_t, i8, ptr, ptr, ptr, ptr, %struct._address, %struct._address, %struct._address, %struct._address, %struct._address, %struct._address, i32, ptr, i8, [3 x i8], %struct.anon, i32, i32, i32, i32, ptr, i8, ptr, ptr, i16, i16, i32, i32, i16, i32, i32, ptr, ptr, ptr, i8, i8, i16, i16, i16, i32, i16, i16, ptr, ptr, ptr, ptr, ptr, i32, i32 }
%struct.nstime_t = type { i64, i32 }
%struct._address = type { i32, i32, ptr, ptr }
%struct.anon = type { i8, [3 x i8] }

@hf_msmms_command_prefix1 = internal global i32 0, align 4
@hf_msmms_command_prefix2 = internal global i32 0, align 4
@hf_msmms_command_client_player_info = internal global i32 0, align 4
@.str.188 = private unnamed_addr constant [6 x i8] c" (%s)\00", align 1

; Function Attrs: null_pointer_is_valid sspstrong uwtable
define internal void @dissect_client_player_info(ptr noundef %0, ptr noundef %1, ptr noundef %2, i32 noundef %3, i32 noundef %4) #0 {
  %6 = alloca ptr, align 8
  %7 = alloca ptr, align 8
  %8 = alloca ptr, align 8
  %9 = alloca i32, align 4
  %10 = alloca i32, align 4
  %11 = alloca ptr, align 8
  store ptr %0, ptr %6, align 8
  store ptr %1, ptr %7, align 8
  store ptr %2, ptr %8, align 8
  store i32 %3, ptr %9, align 4
  store i32 %4, ptr %10, align 4
  call void @llvm.lifetime.start.p0(i64 8, ptr %11) #7
  %12 = load ptr, ptr %8, align 8
  %13 = load i32, ptr @hf_msmms_command_prefix1, align 4
  %14 = load ptr, ptr %6, align 8
  %15 = load i32, ptr %9, align 4
  %16 = call ptr @proto_tree_add_item(ptr noundef %12, i32 noundef %13, ptr noundef %14, i32 noundef %15, i32 noundef 4, i32 noundef -2147483648)
  %17 = load i32, ptr %9, align 4
  %18 = add i32 %17, 4
  store i32 %18, ptr %9, align 4
  %19 = load ptr, ptr %8, align 8
  %20 = load i32, ptr @hf_msmms_command_prefix2, align 4
  %21 = load ptr, ptr %6, align 8
  %22 = load i32, ptr %9, align 4
  %23 = call ptr @proto_tree_add_item(ptr noundef %19, i32 noundef %20, ptr noundef %21, i32 noundef %22, i32 noundef 4, i32 noundef -2147483648)
  %24 = load i32, ptr %9, align 4
  %25 = add i32 %24, 4
  store i32 %25, ptr %9, align 4
  %26 = load i32, ptr %9, align 4
  %27 = add i32 %26, 4
  store i32 %27, ptr %9, align 4
  %28 = load ptr, ptr %8, align 8
  %29 = load i32, ptr @hf_msmms_command_client_player_info, align 4
  %30 = load ptr, ptr %6, align 8
  %31 = load i32, ptr %9, align 4
  %32 = load i32, ptr %10, align 4
  %33 = sub i32 %32, 12
  %34 = load ptr, ptr %7, align 8
  %35 = getelementptr inbounds nuw %struct._packet_info, ptr %34, i32 0, i32 51
  %36 = load ptr, ptr %35, align 8
  %37 = call ptr @proto_tree_add_item_ret_string(ptr noundef %28, i32 noundef %29, ptr noundef %30, i32 noundef %31, i32 noundef %33, i32 noundef -2147483644, ptr noundef %36, ptr noundef %11)
  %38 = load ptr, ptr %7, align 8
  %39 = getelementptr inbounds nuw %struct._packet_info, ptr %38, i32 0, i32 1
  %40 = load ptr, ptr %39, align 8
  %41 = load ptr, ptr %7, align 8
  %42 = getelementptr inbounds nuw %struct._packet_info, ptr %41, i32 0, i32 51
  %43 = load ptr, ptr %42, align 8
  %44 = load ptr, ptr %11, align 8
  %45 = call ptr @format_text_string(ptr noundef %43, ptr noundef %44)
  call void (ptr, i32, ptr, ...) @col_append_fstr(ptr noundef %40, i32 noundef 25, ptr noundef @.str.188, ptr noundef %45)
  call void @llvm.lifetime.end.p0(i64 8, ptr %11) #7
  ret void
}