; Function Attrs: null_pointer_is_valid sspstrong uwtable
define internal fastcc void @dissect_client_player_info(ptr noundef %0, ptr noundef readonly captures(none) %1, ptr noundef %2, i32 noundef %3) unnamed_addr #0 {
  %5 = alloca ptr, align 8
  call void @llvm.lifetime.start.p0(i64 8, ptr nonnull %5) #6
  %6 = load i32, ptr @hf_msmms_command_prefix1, align 4
  %7 = tail call ptr @proto_tree_add_item(ptr noundef %2, i32 noundef %6, ptr noundef %0, i32 noundef 40, i32 noundef 4, i32 noundef -2147483648)
  %8 = load i32, ptr @hf_msmms_command_prefix2, align 4
  %9 = tail call ptr @proto_tree_add_item(ptr noundef %2, i32 noundef %8, ptr noundef %0, i32 noundef 44, i32 noundef 4, i32 noundef -2147483648)
  %10 = load i32, ptr @hf_msmms_command_client_player_info, align 4
  %11 = add i32 %3, -12
  %12 = getelementptr inbounds nuw i8, ptr %1, i64 408
  %13 = load ptr, ptr %12, align 8
  %14 = call ptr @proto_tree_add_item_ret_string(ptr noundef %2, i32 noundef %10, ptr noundef %0, i32 noundef 52, i32 noundef %11, i32 noundef -2147483644, ptr noundef %13, ptr noundef nonnull %5)
  %15 = getelementptr inbounds nuw i8, ptr %1, i64 8
  %16 = load ptr, ptr %15, align 8
  %17 = load ptr, ptr %12, align 8
  %18 = load ptr, ptr %5, align 8
  %19 = call ptr @format_text_string(ptr noundef %17, ptr noundef %18)
  call void (ptr, i32, ptr, ...) @col_append_fstr(ptr noundef %16, i32 noundef 25, ptr noundef nonnull @.str.188, ptr noundef %19)
  call void @llvm.lifetime.end.p0(i64 8, ptr nonnull %5) #6
  ret void
}